; Function Attrs: mustprogress uwtable
define hidden void @_ZN3sls12basic_plugin9get_valueEP4expr(ptr dead_on_unwind noalias writable writeonly sret(%class.obj_ref) align 8 captures(none) initializes((0, 16)) %0, ptr noundef nonnull readonly align 8 captures(none) dereferenceable(56) %1, ptr noundef %2) unnamed_addr #3 align 2 {
  %4 = getelementptr inbounds nuw i8, ptr %1, i64 16
  %5 = load ptr, ptr %4, align 8, !tbaa !3
  %6 = getelementptr inbounds nuw i8, ptr %1, i64 8
  %7 = load ptr, ptr %6, align 8, !tbaa !11
  %8 = tail call noundef zeroext i1 @_ZN3sls7context7is_trueEP4expr(ptr noundef nonnull align 8 dereferenceable(321) %7, ptr noundef %2)
  %.in.v.i = select i1 %8, i64 856, i64 864
  %.in.i = getelementptr inbounds nuw i8, ptr %5, i64 %.in.v.i
  %9 = load ptr, ptr %.in.i, align 8, !tbaa !12
  %10 = load ptr, ptr %4, align 8, !tbaa !3
  store ptr %9, ptr %0, align 8, !tbaa !14
  %11 = getelementptr inbounds nuw i8, ptr %0, i64 8
  store ptr %10, ptr %11, align 8, !tbaa !17
  %.not.i.i = icmp eq ptr %9, null
  br i1 %.not.i.i, label %_ZN7obj_refI4expr11ast_managerEC2EPS0_RS1_.exit, label %_ZN11ast_manager7inc_refEP3ast.exit.i.i

_ZN11ast_manager7inc_refEP3ast.exit.i.i:          ; preds = %3
  %12 = getelementptr inbounds nuw i8, ptr %9, i64 8
  %13 = load i32, ptr %12, align 4, !tbaa !18
  %14 = add i32 %13, 1
  store i32 %14, ptr %12, align 4, !tbaa !18
  br label %_ZN7obj_refI4expr11ast_managerEC2EPS0_RS1_.exit

_ZN7obj_refI4expr11ast_managerEC2EPS0_RS1_.exit:  ; preds = %3, %_ZN11ast_manager7inc_refEP3ast.exit.i.i
  ret void
}